; Function Attrs: mustprogress uwtable
define hidden noundef zeroext i1 @_ZN4cvc58internal6theory6arrays12TheoryArrays13preNotifyFactENS0_12NodeTemplateILb0EEEbS5_bb(ptr nocapture noundef nonnull readonly align 8 dereferenceable(6201) %this, ptr nocapture noundef readonly %atom, i1 zeroext %pol, ptr nocapture readnone %fact, i1 noundef zeroext %isPrereg, i1 noundef zeroext %isInternal) unnamed_addr #3 align 2 personality ptr @__gxx_personality_v0 {
entry:
  %agg.tmp.i39 = alloca %"class.cvc5::internal::NodeTemplate.626", align 8
  %agg.tmp.i = alloca %"class.cvc5::internal::NodeTemplate.626", align 8
  %agg.tmp = alloca %"class.cvc5::internal::NodeTemplate.626", align 8
  %agg.tmp13 = alloca %"class.cvc5::internal::NodeTemplate.626", align 8
  %brmerge = or i1 %isPrereg, %isInternal
  br i1 %brmerge, label %if.end25, label %if.then

if.then:                                          ; preds = %entry
  %0 = load ptr, ptr %atom, align 8
  %d_kind.i = getelementptr inbounds i8, ptr %0, i64 8
  %bf.load.i = load i16, ptr %d_kind.i, align 8
  %bf.clear.i = and i16 %bf.load.i, 1023
  %cmp = icmp eq i16 %bf.clear.i, 5
  br i1 %cmp, label %if.then5, label %if.end25

if.then5:                                         ; preds = %if.then
  %d_equalityEngine = getelementptr inbounds i8, ptr %this, i64 160
  %1 = load ptr, ptr %d_equalityEngine, align 8
  tail call void @llvm.experimental.noalias.scope.decl(metadata !532)
  %call2.i.i.i = tail call noundef i32 @_ZN4cvc58internal4kind10metaKindOfENS1_6Kind_tE(i32 noundef 5), !noalias !532
  %cmp.i.i = icmp eq i32 %call2.i.i.i, 2
  %d_children.i.i = getelementptr inbounds i8, ptr %0, i64 16
  %idxprom.i.i = zext i1 %cmp.i.i to i64
  %arrayidx.i.i = getelementptr inbounds [0 x ptr], ptr %d_children.i.i, i64 0, i64 %idxprom.i.i
  %2 = load ptr, ptr %arrayidx.i.i, align 8, !noalias !532
  store ptr %2, ptr %agg.tmp, align 8, !alias.scope !532
  %call6 = call noundef zeroext i1 @_ZNK4cvc58internal6theory2eq14EqualityEngine7hasTermENS0_12NodeTemplateILb0EEE(ptr noundef nonnull align 8 dereferenceable(1784) %1, ptr noundef nonnull %agg.tmp)
  br i1 %call6, label %if.end, label %if.then7

if.then7:                                         ; preds = %if.then5
  %3 = load ptr, ptr %d_equalityEngine, align 8
  %4 = load ptr, ptr %atom, align 8, !noalias !535
  %d_kind.i.i.i.i2 = getelementptr inbounds i8, ptr %4, i64 8
  %bf.load.i.i.i.i3 = load i16, ptr %d_kind.i.i.i.i2, align 8, !noalias !535
  %bf.clear.i.i.i.i4 = and i16 %bf.load.i.i.i.i3, 1023
  %bf.cast.i.i.i.i5 = zext nneg i16 %bf.clear.i.i.i.i4 to i32
  %cmp.i.i.i.i.i6 = icmp eq i16 %bf.clear.i.i.i.i4, 1023
  %cond.i.i.i.i.i7 = select i1 %cmp.i.i.i.i.i6, i32 -1, i32 %bf.cast.i.i.i.i5
  %call2.i.i.i8 = call noundef i32 @_ZN4cvc58internal4kind10metaKindOfENS1_6Kind_tE(i32 noundef %cond.i.i.i.i.i7), !noalias !535
  %cmp.i.i9 = icmp eq i32 %call2.i.i.i8, 2
  %d_children.i.i11 = getelementptr inbounds i8, ptr %4, i64 16
  %idxprom.i.i12 = zext i1 %cmp.i.i9 to i64
  %arrayidx.i.i13 = getelementptr inbounds [0 x ptr], ptr %d_children.i.i11, i64 0, i64 %idxprom.i.i12
  %5 = load ptr, ptr %arrayidx.i.i13, align 8, !noalias !535
  call void @llvm.lifetime.start.p0(i64 8, ptr nonnull %agg.tmp.i)
  store ptr %5, ptr %agg.tmp.i, align 8
  call void @_ZN4cvc58internal6theory2eq14EqualityEngine15addTermInternalENS0_12NodeTemplateILb0EEEb(ptr noundef nonnull align 8 dereferenceable(1784) %3, ptr noundef nonnull %agg.tmp.i, i1 noundef zeroext false)
  call void @llvm.lifetime.end.p0(i64 8, ptr nonnull %agg.tmp.i)
  br label %if.end

if.end:                                           ; preds = %if.then7, %if.then5
  %6 = load ptr, ptr %d_equalityEngine, align 8
  call void @llvm.experimental.noalias.scope.decl(metadata !538)
  %7 = load ptr, ptr %atom, align 8, !noalias !538
  %d_kind.i.i.i.i14 = getelementptr inbounds i8, ptr %7, i64 8
  %bf.load.i.i.i.i15 = load i16, ptr %d_kind.i.i.i.i14, align 8, !noalias !538
  %bf.clear.i.i.i.i16 = and i16 %bf.load.i.i.i.i15, 1023
  %bf.cast.i.i.i.i17 = zext nneg i16 %bf.clear.i.i.i.i16 to i32
  %cmp.i.i.i.i.i18 = icmp eq i16 %bf.clear.i.i.i.i16, 1023
  %cond.i.i.i.i.i19 = select i1 %cmp.i.i.i.i.i18, i32 -1, i32 %bf.cast.i.i.i.i17
  %call2.i.i.i20 = call noundef i32 @_ZN4cvc58internal4kind10metaKindOfENS1_6Kind_tE(i32 noundef %cond.i.i.i.i.i19), !noalias !538
  %cmp.i.i21 = icmp eq i32 %call2.i.i.i20, 2
  %spec.select.i.i = select i1 %cmp.i.i21, i64 2, i64 1
  %d_children.i.i23 = getelementptr inbounds i8, ptr %7, i64 16
  %arrayidx.i.i25 = getelementptr inbounds [0 x ptr], ptr %d_children.i.i23, i64 0, i64 %spec.select.i.i
  %8 = load ptr, ptr %arrayidx.i.i25, align 8, !noalias !538
  store ptr %8, ptr %agg.tmp13, align 8, !alias.scope !538
  %call16 = call noundef zeroext i1 @_ZNK4cvc58internal6theory2eq14EqualityEngine7hasTermENS0_12NodeTemplateILb0EEE(ptr noundef nonnull align 8 dereferenceable(1784) %6, ptr noundef nonnull %agg.tmp13)
  br i1 %call16, label %if.end25, label %if.then18

if.then18:                                        ; preds = %if.end
  %9 = load ptr, ptr %d_equalityEngine, align 8
  %10 = load ptr, ptr %atom, align 8, !noalias !541
  %d_kind.i.i.i.i26 = getelementptr inbounds i8, ptr %10, i64 8
  %bf.load.i.i.i.i27 = load i16, ptr %d_kind.i.i.i.i26, align 8, !noalias !541
  %bf.clear.i.i.i.i28 = and i16 %bf.load.i.i.i.i27, 1023
  %bf.cast.i.i.i.i29 = zext nneg i16 %bf.clear.i.i.i.i28 to i32
  %cmp.i.i.i.i.i30 = icmp eq i16 %bf.clear.i.i.i.i28, 1023
  %cond.i.i.i.i.i31 = select i1 %cmp.i.i.i.i.i30, i32 -1, i32 %bf.cast.i.i.i.i29
  %call2.i.i.i32 = call noundef i32 @_ZN4cvc58internal4kind10metaKindOfENS1_6Kind_tE(i32 noundef %cond.i.i.i.i.i31), !noalias !541
  %cmp.i.i33 = icmp eq i32 %call2.i.i.i32, 2
  %spec.select.i.i35 = select i1 %cmp.i.i33, i64 2, i64 1
  %d_children.i.i36 = getelementptr inbounds i8, ptr %10, i64 16
  %arrayidx.i.i38 = getelementptr inbounds [0 x ptr], ptr %d_children.i.i36, i64 0, i64 %spec.select.i.i35
  %11 = load ptr, ptr %arrayidx.i.i38, align 8, !noalias !541
  call void @llvm.lifetime.start.p0(i64 8, ptr nonnull %agg.tmp.i39)
  store ptr %11, ptr %agg.tmp.i39, align 8
  call void @_ZN4cvc58internal6theory2eq14EqualityEngine15addTermInternalENS0_12NodeTemplateILb0EEEb(ptr noundef nonnull align 8 dereferenceable(1784) %9, ptr noundef nonnull %agg.tmp.i39, i1 noundef zeroext false)
  call void @llvm.lifetime.end.p0(i64 8, ptr nonnull %agg.tmp.i39)
  br label %if.end25

if.end25:                                         ; preds = %entry, %if.then, %if.then18, %if.end
  ret i1 false
}